; Function Attrs: nounwind uwtable
define void @Wln_WriteNdr(ptr noundef %0, ptr noundef %1) local_unnamed_addr #0 {
  %3 = tail call ptr @Wln_NtkToNdr(ptr noundef %0)
  %4 = tail call noalias ptr @fopen(ptr noundef %1, ptr noundef nonnull @.str.20)
  %5 = icmp eq ptr %4, null
  br i1 %5, label %Ndr_Write.exit, label %Ndr_Write.exit.thread

Ndr_Write.exit.thread:                            ; preds = %2
  %6 = getelementptr inbounds nuw i8, ptr %3, i64 16
  %7 = load ptr, ptr %6, align 8, !tbaa !12
  %8 = load i32, ptr %7, align 4, !tbaa !14
  %9 = zext i32 %8 to i64
  %10 = tail call i64 @fwrite(ptr noundef nonnull %7, i64 noundef 4, i64 noundef %9, ptr noundef nonnull %4)
  %11 = getelementptr inbounds nuw i8, ptr %3, i64 8
  %12 = load ptr, ptr %11, align 8, !tbaa !11
  %13 = load ptr, ptr %6, align 8, !tbaa !12
  %14 = load i32, ptr %13, align 4, !tbaa !14
  %15 = zext i32 %14 to i64
  %16 = tail call i64 @fwrite(ptr noundef %12, i64 noundef 1, i64 noundef %15, ptr noundef nonnull %4)
  %17 = tail call i32 @fclose(ptr noundef nonnull %4)
  br label %20

Ndr_Write.exit:                                   ; preds = %2
  %.not.i = icmp eq ptr %1, null
  %18 = select i1 %.not.i, ptr @.str.22, ptr %1
  %19 = tail call i32 (ptr, ...) @printf(ptr noundef nonnull dereferenceable(1) @.str.21, ptr noundef nonnull %18)
  %.not.i5 = icmp eq ptr %3, null
  br i1 %.not.i5, label %Ndr_Delete.exit, label %20

20:                                               ; preds = %Ndr_Write.exit.thread, %Ndr_Write.exit
  %21 = getelementptr inbounds nuw i8, ptr %3, i64 8
  %22 = load ptr, ptr %21, align 8, !tbaa !11
  tail call void @free(ptr noundef %22) #21
  %23 = getelementptr inbounds nuw i8, ptr %3, i64 16
  %24 = load ptr, ptr %23, align 8, !tbaa !12
  tail call void @free(ptr noundef %24) #21
  tail call void @free(ptr noundef nonnull %3) #21
  br label %Ndr_Delete.exit

Ndr_Delete.exit:                                  ; preds = %Ndr_Write.exit, %20
  %25 = tail call i32 (ptr, ...) @printf(ptr noundef nonnull dereferenceable(1) @.str, ptr noundef %1)
  ret void
}